#include <math.h>
#include <stdio.h>
#include <stdlib.h>
#include <string.h>

int main()
{
  int n,a,b,c,d,e;
  scanf("%d",&n);
  a=n/10000;
  b=(n-a*10000)/1000;
  c=(n-a*10000-b*1000)/100;
  d=(n-a*10000-b*1000-c*100)/10;
  e=n%10;
  if(a>0) printf("00001");
  else if(b>0) printf("%d%d%d%d",e,d,c,b);
  else if(c>0) printf("%d%d%d",e,d,c);
  else if(d>0) printf("%d%d",e,d);
  else printf("%d",e);
  return 0;
}